target datalayout = "e-m:e-p270:32:32-p271:32:32-p272:64:64-i64:64-i128:128-f80:128-n8:16:32:64-S128"
target triple = "x86_64-pc-linux-gnu"

%struct.SDL_AtomicInt = type { i32 }
%struct.VulkanRenderer = type { ptr, ptr, %struct.VkPhysicalDeviceProperties2, %struct.VkPhysicalDeviceDriverProperties, %struct.VkPhysicalDeviceFeatures, ptr, i8, i8, i8, i8, i8, i8, i32, i32, %struct.VulkanExtensions, i8, i8, i8, i8, ptr, %struct.VkPhysicalDeviceMemoryProperties, i8, ptr, i32, i32, i32, ptr, ptr, i32, i32, %struct.VulkanFencePool, ptr, ptr, ptr, ptr, ptr, ptr, ptr, i32, i32, ptr, i32, i32, %struct.SDL_AtomicInt, i32, ptr, i32, i32, ptr, i32, i32, ptr, i32, i32, ptr, i32, i32, ptr, i32, i32, ptr, i32, i32, ptr, i32, i32, ptr, ptr, ptr, ptr, ptr, ptr, ptr, ptr, ptr, ptr, ptr, i8, ptr, i32, i32, ptr, ptr, ptr, ptr, ptr, ptr, ptr, ptr, ptr, ptr, ptr, ptr, ptr, ptr, ptr, ptr, ptr, ptr, ptr, ptr, ptr, ptr, ptr, ptr, ptr, ptr, ptr, ptr, ptr, ptr, ptr, ptr, ptr, ptr, ptr, ptr, ptr, ptr, ptr, ptr, ptr, ptr, ptr, ptr, ptr, ptr, ptr, ptr, ptr, ptr, ptr, ptr, ptr, ptr, ptr, ptr, ptr, ptr, ptr, ptr, ptr, ptr, ptr, ptr, ptr, ptr, ptr, ptr, ptr, ptr, ptr, ptr, ptr, ptr, ptr, ptr, ptr, ptr, ptr, ptr, ptr, ptr, ptr, ptr, ptr, ptr, ptr, ptr, ptr, ptr, ptr, ptr, ptr, ptr, ptr, ptr, ptr, ptr, ptr, ptr, ptr, ptr, ptr, ptr, ptr, ptr, ptr, ptr, ptr, ptr }
%struct.VkPhysicalDeviceProperties2 = type { i32, ptr, %struct.VkPhysicalDeviceProperties }
%struct.VkPhysicalDeviceProperties = type { i32, i32, i32, i32, i32, [256 x i8], [16 x i8], %struct.VkPhysicalDeviceLimits, %struct.VkPhysicalDeviceSparseProperties }
%struct.VkPhysicalDeviceLimits = type { i32, i32, i32, i32, i32, i32, i32, i32, i32, i32, i32, i64, i64, i32, i32, i32, i32, i32, i32, i32, i32, i32, i32, i32, i32, i32, i32, i32, i32, i32, i32, i32, i32, i32, i32, i32, i32, i32, i32, i32, i32, i32, i32, i32, i32, i32, i32, i32, i32, i32, i32, i32, [3 x i32], i32, [3 x i32], i32, i32, i32, i32, i32, float, float, i32, [2 x i32], [2 x float], i32, i64, i64, i64, i64, i32, i32, i32, i32, float, float, i32, i32, i32, i32, i32, i32, i32, i32, i32, i32, i32, i32, i32, i32, i32, i32, float, i32, i32, i32, i32, [2 x float], [2 x float], float, float, i32, i32, i64, i64, i64 }
%struct.VkPhysicalDeviceSparseProperties = type { i32, i32, i32, i32, i32 }
%struct.VkPhysicalDeviceDriverProperties = type { i32, ptr, i32, [256 x i8], [256 x i8], %struct.VkConformanceVersion }
%struct.VkConformanceVersion = type { i8, i8, i8, i8 }
%struct.VkPhysicalDeviceFeatures = type { i32, i32, i32, i32, i32, i32, i32, i32, i32, i32, i32, i32, i32, i32, i32, i32, i32, i32, i32, i32, i32, i32, i32, i32, i32, i32, i32, i32, i32, i32, i32, i32, i32, i32, i32, i32, i32, i32, i32, i32, i32, i32, i32, i32, i32, i32, i32, i32, i32, i32, i32, i32, i32, i32, i32 }
%struct.VulkanExtensions = type { i8, i8, i8, i8, i8 }
%struct.VkPhysicalDeviceMemoryProperties = type { i32, [32 x %struct.VkMemoryType], i32, [16 x %struct.VkMemoryHeap] }
%struct.VkMemoryType = type { i32, i32 }
%struct.VkMemoryHeap = type { i64, i32 }
%struct.VulkanFencePool = type { ptr, ptr, i32, i32 }
%struct.VulkanCommandBuffer = type { %struct.CommandBufferCommonHeader, ptr, ptr, ptr, ptr, i32, i32, ptr, i32, i32, ptr, i32, i32, ptr, ptr, [4 x ptr], i32, [4 x ptr], i32, ptr, %struct.VkViewport, %struct.VkRect2D, [4 x float], i8, ptr, i8, i8, i8, i8, i8, i8, i8, i8, i8, i8, ptr, ptr, ptr, ptr, ptr, ptr, ptr, [16 x ptr], [16 x i64], i32, i8, [16 x ptr], [16 x ptr], [8 x ptr], [8 x ptr], [16 x ptr], [16 x ptr], [8 x ptr], [8 x ptr], [8 x ptr], i32, [8 x ptr], [16 x ptr], [16 x ptr], [8 x ptr], [8 x ptr], [4 x ptr], [4 x ptr], [4 x ptr], ptr, i32, i32, ptr, i32, i32, ptr, i32, i32, ptr, i32, i32, ptr, i32, i32, ptr, i32, i32, ptr, i32, i32, ptr, i8, i8 }
%struct.CommandBufferCommonHeader = type { ptr, %struct.RenderPass, i8, %struct.Pass, i8, %struct.Pass, i8, i8, i8 }
%struct.RenderPass = type { ptr, i8, [4 x ptr], i32, ptr }
%struct.Pass = type { ptr, i8 }
%struct.VkViewport = type { float, float, float, float, float, float }
%struct.VkRect2D = type { %struct.VkOffset2D, %struct.VkExtent2D }
%struct.VkOffset2D = type { i32, i32 }
%struct.VkExtent2D = type { i32, i32 }

; Function Attrs: nounwind uwtable
define internal void @VULKAN_INTERNAL_SetCurrentStencilReference(ptr noundef %0, i8 noundef zeroext %1) #0 {
  %3 = alloca ptr, align 8
  %4 = alloca i8, align 1
  %5 = alloca ptr, align 8
  store ptr %0, ptr %3, align 8
  store i8 %1, ptr %4, align 1
  call void @llvm.lifetime.start.p0(i64 8, ptr %5) #9
  %6 = load ptr, ptr %3, align 8
  %7 = getelementptr inbounds nuw %struct.VulkanCommandBuffer, ptr %6, i32 0, i32 1
  %8 = load ptr, ptr %7, align 8
  store ptr %8, ptr %5, align 8
  %9 = load i8, ptr %4, align 1
  %10 = load ptr, ptr %3, align 8
  %11 = getelementptr inbounds nuw %struct.VulkanCommandBuffer, ptr %10, i32 0, i32 23
  store i8 %9, ptr %11, align 8
  %12 = load ptr, ptr %5, align 8
  %13 = getelementptr inbounds nuw %struct.VulkanRenderer, ptr %12, i32 0, i32 133
  %14 = load ptr, ptr %13, align 8
  %15 = load ptr, ptr %3, align 8
  %16 = getelementptr inbounds nuw %struct.VulkanCommandBuffer, ptr %15, i32 0, i32 2
  %17 = load ptr, ptr %16, align 8
  %18 = load ptr, ptr %3, align 8
  %19 = getelementptr inbounds nuw %struct.VulkanCommandBuffer, ptr %18, i32 0, i32 23
  %20 = load i8, ptr %19, align 8
  %21 = zext i8 %20 to i32
  call void %14(ptr noundef %17, i32 noundef 3, i32 noundef %21)
  call void @llvm.lifetime.end.p0(i64 8, ptr %5) #9
  ret void
}

; Function Attrs: nounwind uwtable
define internal void @VULKAN_SetStencilReference(ptr noundef %0, i8 noundef zeroext %1) #0 {
  %3 = alloca ptr, align 8
  %4 = alloca i8, align 1
  %5 = alloca ptr, align 8
  store ptr %0, ptr %3, align 8
  store i8 %1, ptr %4, align 1
  call void @llvm.lifetime.start.p0(i64 8, ptr %5) #9
  %6 = load ptr, ptr %3, align 8
  store ptr %6, ptr %5, align 8
  %7 = load ptr, ptr %5, align 8
  %8 = load i8, ptr %4, align 1
  call void @VULKAN_INTERNAL_SetCurrentStencilReference(ptr noundef %7, i8 noundef zeroext %8)
  call void @llvm.lifetime.end.p0(i64 8, ptr %5) #9
  ret void
}