; Function Attrs: nounwind uwtable
define internal void @VULKAN_SetStencilReference(ptr noundef captures(none) initializes((360, 361)) %0, i8 noundef zeroext %1) #0 {
  %3 = getelementptr inbounds nuw i8, ptr %0, i64 128
  %4 = load ptr, ptr %3, align 8
  %5 = getelementptr inbounds nuw i8, ptr %0, i64 360
  store i8 %1, ptr %5, align 8
  %6 = getelementptr inbounds nuw i8, ptr %4, i64 2992
  %7 = load ptr, ptr %6, align 8
  %8 = getelementptr inbounds nuw i8, ptr %0, i64 136
  %9 = load ptr, ptr %8, align 8
  %10 = zext i8 %1 to i32
  tail call void %7(ptr noundef %9, i32 noundef 3, i32 noundef %10) #13
  ret void
}